target datalayout = "e-m:e-p270:32:32-p271:32:32-p272:64:64-i64:64-i128:128-f80:128-n8:16:32:64-S128"
target triple = "x86_64-pc-linux-gnu"

%struct.ieee802154_map_tab_t = type { ptr, ptr }
%struct.ieee802154_short_addr = type { i16, i16 }
%struct.ieee802154_map_rec = type { ptr, i32, i32, i64 }

@ieee802154_map = hidden global %struct.ieee802154_map_tab_t zeroinitializer, align 8

; Function Attrs: null_pointer_is_valid sspstrong uwtable
define hidden zeroext i1 @ieee802154_short_addr_invalidate(i16 noundef zeroext %0, i16 noundef zeroext %1, i32 noundef %2) #0 {
  %4 = alloca i1, align 1
  %5 = alloca i16, align 2
  %6 = alloca i16, align 2
  %7 = alloca i32, align 4
  %8 = alloca %struct.ieee802154_short_addr, align 2
  %9 = alloca ptr, align 8
  %10 = alloca i32, align 4
  store i16 %0, ptr %5, align 2
  store i16 %1, ptr %6, align 2
  store i32 %2, ptr %7, align 4
  call void @llvm.lifetime.start.p0(i64 4, ptr %8) #17
  call void @llvm.lifetime.start.p0(i64 8, ptr %9) #17
  %11 = load i16, ptr %6, align 2
  %12 = getelementptr inbounds nuw %struct.ieee802154_short_addr, ptr %8, i32 0, i32 0
  store i16 %11, ptr %12, align 2
  %13 = load i16, ptr %5, align 2
  %14 = getelementptr inbounds nuw %struct.ieee802154_short_addr, ptr %8, i32 0, i32 1
  store i16 %13, ptr %14, align 2
  %15 = load ptr, ptr getelementptr inbounds nuw (%struct.ieee802154_map_tab_t, ptr @ieee802154_map, i32 0, i32 1), align 8
  %16 = call ptr @g_hash_table_lookup(ptr noundef %15, ptr noundef %8)
  store ptr %16, ptr %9, align 8
  %17 = load ptr, ptr %9, align 8
  %18 = icmp ne ptr %17, null
  br i1 %18, label %19, label %23

19:                                               ; preds = %3
  %20 = load i32, ptr %7, align 4
  %21 = load ptr, ptr %9, align 8
  %22 = getelementptr inbounds nuw %struct.ieee802154_map_rec, ptr %21, i32 0, i32 2
  store i32 %20, ptr %22, align 4
  store i1 true, ptr %4, align 1
  store i32 1, ptr %10, align 4
  br label %24

23:                                               ; preds = %3
  store i1 false, ptr %4, align 1
  store i32 1, ptr %10, align 4
  br label %24

24:                                               ; preds = %23, %19
  call void @llvm.lifetime.end.p0(i64 8, ptr %9) #17
  call void @llvm.lifetime.end.p0(i64 4, ptr %8) #17
  %25 = load i1, ptr %4, align 1
  ret i1 %25
}