; Function Attrs: null_pointer_is_valid sspstrong uwtable
define hidden noundef zeroext i1 @ieee802154_short_addr_invalidate(i16 noundef zeroext %0, i16 noundef zeroext %1, i32 noundef %2) local_unnamed_addr #0 {
  %4 = alloca %struct.ieee802154_short_addr, align 2
  call void @llvm.lifetime.start.p0(i64 4, ptr nonnull %4) #19
  store i16 %1, ptr %4, align 2
  %5 = getelementptr inbounds nuw i8, ptr %4, i64 2
  store i16 %0, ptr %5, align 2
  %6 = load ptr, ptr getelementptr inbounds nuw (i8, ptr @ieee802154_map, i64 8), align 8
  %7 = call ptr @g_hash_table_lookup(ptr noundef %6, ptr noundef nonnull %4)
  %.not = icmp ne ptr %7, null
  br i1 %.not, label %8, label %10

8:                                                ; preds = %3
  %9 = getelementptr inbounds nuw i8, ptr %7, i64 12
  store i32 %2, ptr %9, align 4
  br label %10

10:                                               ; preds = %3, %8
  call void @llvm.lifetime.end.p0(i64 4, ptr nonnull %4) #19
  ret i1 %.not
}